; ModuleID = 'bench/abc/original/dauCore.ll'
source_filename = "bench/abc/original/dauCore.ll"
target datalayout = "e-m:e-p270:32:32-p271:32:32-p272:64:64-i64:64-i128:128-f80:128-n8:16:32:64-S128"
target triple = "x86_64-pc-linux-gnu"

; Function Attrs: mustprogress nofree nounwind willreturn memory(write, argmem: none, inaccessiblemem: readwrite) uwtable
define noalias noundef ptr @Xyz_ManTryAlloc(ptr noundef %0, ptr noundef %1) local_unnamed_addr #0 {
  %3 = tail call noalias dereferenceable_or_null(16) ptr @calloc(i64 noundef 1, i64 noundef 16) #5
  %4 = getelementptr inbounds nuw i8, ptr %3, i64 8
  store ptr %0, ptr %4, align 8, !tbaa !3
  store ptr %1, ptr %3, align 8, !tbaa !10
  ret ptr %3
}

; Function Attrs: mustprogress nofree nounwind willreturn allockind("alloc,zeroed") allocsize(0,1) memory(inaccessiblemem: readwrite)
declare noalias noundef ptr @calloc(i64 noundef, i64 noundef) local_unnamed_addr #1

; Function Attrs: mustprogress nounwind willreturn memory(argmem: readwrite, inaccessiblemem: readwrite) uwtable
define void @Xyz_ManTryFree(ptr noundef %0) local_unnamed_addr #2 {
  %.not = icmp eq ptr %0, null
  br i1 %.not, label %3, label %2

2:                                                ; preds = %1
  tail call void @free(ptr noundef nonnull %0) #6
  br label %3

3:                                                ; preds = %1, %2
  ret void
}

; Function Attrs: mustprogress nounwind willreturn allockind("free") memory(argmem: readwrite, inaccessiblemem: readwrite)
declare void @free(ptr allocptr noundef captures(none)) local_unnamed_addr #3

; Function Attrs: mustprogress nofree norecurse nosync nounwind willreturn memory(none) uwtable
define noundef i32 @Xyz_ManPerform(ptr noundef readnone captures(none) %0, ptr noundef readnone captures(none) %1) local_unnamed_addr #4 {
Xyz_ManTryFree.exit:
  ret i32 1
}


!llvm.module.flags = !{!0, !1, !2}

!0 = !{i32 1, !"wchar_size", i32 4}
!1 = !{i32 8, !"PIC Level", i32 2}
!2 = !{i32 7, !"uwtable", i32 2}
!3 = !{!4, !9, i64 8}
!4 = !{!"Xyz_ManTry_t_", !5, i64 0, !9, i64 8}
!5 = !{!"p1 _ZTS13Xyz_ParTry_t_", !6, i64 0}
!6 = !{!"any pointer", !7, i64 0}
!7 = !{!"omnipotent char", !8, i64 0}
!8 = !{!"Simple C/C++ TBAA"}
!9 = !{!"p1 _ZTS10Aig_Man_t_", !6, i64 0}
!10 = !{!4, !5, i64 0}
